target datalayout = "e-m:e-p270:32:32-p271:32:32-p272:64:64-i64:64-i128:128-f80:128-n8:16:32:64-S128"
target triple = "x86_64-pc-linux-gnu"

%struct.re_registers = type { i32, i32, ptr, ptr }
%struct.RMatch = type { %struct.RBasic, i64, i64 }
%struct.RBasic = type { i64, i64 }
%struct.rb_matchext_struct = type { %struct.re_registers, ptr, i32 }

@rb_eIndexError = external global i64, align 8
@.str.120 = private unnamed_addr constant [24 x i8] c"index %d out of matches\00", align 1

; Function Attrs: nounwind sspstrong uwtable
define internal void @backref_number_check(ptr noundef %0, i32 noundef %1) #0 {
  %3 = alloca ptr, align 8
  %4 = alloca i32, align 4
  store ptr %0, ptr %3, align 8, !tbaa !32
  store i32 %1, ptr %4, align 4, !tbaa !16
  %5 = load i32, ptr %4, align 4, !tbaa !16
  %6 = icmp slt i32 %5, 0
  br i1 %6, label %13, label %7

7:                                                ; preds = %2
  %8 = load ptr, ptr %3, align 8, !tbaa !32
  %9 = getelementptr inbounds nuw %struct.re_registers, ptr %8, i32 0, i32 1
  %10 = load i32, ptr %9, align 4, !tbaa !40
  %11 = load i32, ptr %4, align 4, !tbaa !16
  %12 = icmp sle i32 %10, %11
  br i1 %12, label %13, label %16

13:                                               ; preds = %7, %2
  %14 = load i64, ptr @rb_eIndexError, align 8, !tbaa !11
  %15 = load i32, ptr %4, align 4, !tbaa !16
  call void (i64, ptr, ...) @rb_raise(i64 noundef %14, ptr noundef @.str.120, i32 noundef %15) #30
  unreachable

16:                                               ; preds = %7
  ret void
}

; Function Attrs: inlinehint nounwind sspstrong willreturn memory(read) uwtable
define internal ptr @RMATCH_REGS(i64 noundef %0) #8 {
  %2 = alloca i64, align 8
  store i64 %0, ptr %2, align 8, !tbaa !11
  %3 = load i64, ptr %2, align 8, !tbaa !11
  %4 = inttoptr i64 %3 to ptr
  %5 = getelementptr i8, ptr %4, i64 32
  %6 = getelementptr inbounds nuw %struct.rb_matchext_struct, ptr %5, i32 0, i32 0
  ret ptr %6
}

; Function Attrs: nounwind sspstrong uwtable
define internal i64 @match_nth(i64 noundef %0, i64 noundef %1) #0 {
  %3 = alloca i64, align 8
  %4 = alloca i64, align 8
  %5 = alloca i64, align 8
  %6 = alloca i32, align 4
  %7 = alloca ptr, align 8
  %8 = alloca i64, align 8
  %9 = alloca i64, align 8
  %10 = alloca i32, align 4
  store i64 %0, ptr %4, align 8, !tbaa !11
  store i64 %1, ptr %5, align 8, !tbaa !11
  call void @llvm.lifetime.start.p0(i64 4, ptr %6) #28
  %11 = load i64, ptr %4, align 8, !tbaa !11
  %12 = load i64, ptr %5, align 8, !tbaa !11
  %13 = call i32 @match_backref_number(i64 noundef %11, i64 noundef %12)
  store i32 %13, ptr %6, align 4, !tbaa !16
  call void @llvm.lifetime.start.p0(i64 8, ptr %7) #28
  %14 = load i64, ptr %4, align 8, !tbaa !11
  %15 = call ptr @RMATCH_REGS(i64 noundef %14) #29
  store ptr %15, ptr %7, align 8, !tbaa !32
  %16 = load ptr, ptr %7, align 8, !tbaa !32
  %17 = load i32, ptr %6, align 4, !tbaa !16
  call void @backref_number_check(ptr noundef %16, i32 noundef %17)
  call void @llvm.lifetime.start.p0(i64 8, ptr %8) #28
  %18 = load ptr, ptr %7, align 8, !tbaa !32
  %19 = getelementptr inbounds nuw %struct.re_registers, ptr %18, i32 0, i32 2
  %20 = load ptr, ptr %19, align 8, !tbaa !80
  %21 = load i32, ptr %6, align 4, !tbaa !16
  %22 = sext i32 %21 to i64
  %23 = getelementptr i64, ptr %20, i64 %22
  %24 = load i64, ptr %23, align 8, !tbaa !11
  store i64 %24, ptr %8, align 8, !tbaa !11
  call void @llvm.lifetime.start.p0(i64 8, ptr %9) #28
  %25 = load ptr, ptr %7, align 8, !tbaa !32
  %26 = getelementptr inbounds nuw %struct.re_registers, ptr %25, i32 0, i32 3
  %27 = load ptr, ptr %26, align 8, !tbaa !81
  %28 = load i32, ptr %6, align 4, !tbaa !16
  %29 = sext i32 %28 to i64
  %30 = getelementptr i64, ptr %27, i64 %29
  %31 = load i64, ptr %30, align 8, !tbaa !11
  store i64 %31, ptr %9, align 8, !tbaa !11
  %32 = load i64, ptr %8, align 8, !tbaa !11
  %33 = icmp slt i64 %32, 0
  br i1 %33, label %34, label %35

34:                                               ; preds = %2
  store i64 4, ptr %3, align 8
  store i32 1, ptr %10, align 4
  br label %45

35:                                               ; preds = %2
  %36 = load i64, ptr %4, align 8, !tbaa !11
  %37 = inttoptr i64 %36 to ptr
  %38 = getelementptr inbounds nuw %struct.RMatch, ptr %37, i32 0, i32 1
  %39 = load i64, ptr %38, align 8, !tbaa !43
  %40 = load i64, ptr %8, align 8, !tbaa !11
  %41 = load i64, ptr %9, align 8, !tbaa !11
  %42 = load i64, ptr %8, align 8, !tbaa !11
  %43 = sub i64 %41, %42
  %44 = call i64 @rb_str_subseq(i64 noundef %39, i64 noundef %40, i64 noundef %43)
  store i64 %44, ptr %3, align 8
  store i32 1, ptr %10, align 4
  br label %45

45:                                               ; preds = %35, %34
  call void @llvm.lifetime.end.p0(i64 8, ptr %9) #28
  call void @llvm.lifetime.end.p0(i64 8, ptr %8) #28
  call void @llvm.lifetime.end.p0(i64 8, ptr %7) #28
  call void @llvm.lifetime.end.p0(i64 4, ptr %6) #28
  %46 = load i64, ptr %3, align 8
  ret i64 %46
}