; Function Attrs: nounwind sspstrong uwtable
define internal i64 @match_nth(i64 noundef %0, i64 noundef %1) #2 {
  %3 = tail call fastcc i32 @match_backref_number(i64 noundef %0, i64 noundef %1)
  %4 = inttoptr i64 %0 to ptr
  %5 = icmp slt i32 %3, 0
  br i1 %5, label %9, label %6

6:                                                ; preds = %2
  %7 = getelementptr i8, ptr %4, i64 36
  %8 = load i32, ptr %7, align 4, !tbaa !40
  %.not.i = icmp sgt i32 %8, %3
  br i1 %.not.i, label %backref_number_check.exit, label %9

9:                                                ; preds = %6, %2
  %10 = load i64, ptr @rb_eIndexError, align 8, !tbaa !18
  tail call void (i64, ptr, ...) @rb_raise(i64 noundef %10, ptr noundef nonnull @.str.120, i32 noundef %3) #30
  unreachable

backref_number_check.exit:                        ; preds = %6
  %11 = getelementptr i8, ptr %4, i64 40
  %12 = load ptr, ptr %11, align 8, !tbaa !92
  %13 = zext nneg i32 %3 to i64
  %14 = getelementptr i64, ptr %12, i64 %13
  %15 = load i64, ptr %14, align 8, !tbaa !18
  %16 = icmp slt i64 %15, 0
  br i1 %16, label %26, label %17

17:                                               ; preds = %backref_number_check.exit
  %18 = getelementptr i8, ptr %4, i64 48
  %19 = load ptr, ptr %18, align 8, !tbaa !93
  %20 = getelementptr i64, ptr %19, i64 %13
  %21 = load i64, ptr %20, align 8, !tbaa !18
  %22 = getelementptr inbounds nuw i8, ptr %4, i64 16
  %23 = load i64, ptr %22, align 8, !tbaa !94
  %24 = sub i64 %21, %15
  %25 = tail call i64 @rb_str_subseq(i64 noundef %23, i64 noundef %15, i64 noundef %24) #29
  br label %26

26:                                               ; preds = %backref_number_check.exit, %17
  %.0 = phi i64 [ %25, %17 ], [ 4, %backref_number_check.exit ]
  ret i64 %.0
}